; Function Attrs: mustprogress nounwind uwtable
define hidden void @_ZN15ast_translationD2Ev(ptr nocapture noundef nonnull align 8 dereferenceable(84) %this) unnamed_addr #3 align 2 personality ptr @__gxx_personality_v0 {
entry:
  invoke void @_ZN15ast_translation11reset_cacheEv(ptr noundef nonnull align 8 dereferenceable(84) %this)
          to label %invoke.cont unwind label %terminate.lpad

invoke.cont:                                      ; preds = %entry
  %m_cache = getelementptr inbounds i8, ptr %this, i64 40
  %0 = load ptr, ptr %m_cache, align 8
  %cmp.i.i.i.i = icmp eq ptr %0, null
  br i1 %cmp.i.i.i.i, label %_ZN7obj_mapI3astPS0_ED2Ev.exit, label %for.cond.preheader.i.i.i.i

for.cond.preheader.i.i.i.i:                       ; preds = %invoke.cont
  invoke void @_ZN6memory10deallocateEPv(ptr noundef nonnull %0)
          to label %_ZN7obj_mapI3astPS0_ED2Ev.exit unwind label %terminate.lpad.i.i

terminate.lpad.i.i:                               ; preds = %for.cond.preheader.i.i.i.i
  %1 = landingpad { ptr, i32 }
          catch ptr null
  %2 = extractvalue { ptr, i32 } %1, 0
  tail call void @__clang_call_terminate(ptr %2) #14
  unreachable

_ZN7obj_mapI3astPS0_ED2Ev.exit:                   ; preds = %invoke.cont, %for.cond.preheader.i.i.i.i
  store ptr null, ptr %m_cache, align 8
  %m_result_stack = getelementptr inbounds i8, ptr %this, i64 32
  %3 = load ptr, ptr %m_result_stack, align 8
  %tobool.not.i.i.i = icmp eq ptr %3, null
  br i1 %tobool.not.i.i.i, label %_ZN10ptr_vectorI3astED2Ev.exit, label %if.then.i.i.i

if.then.i.i.i:                                    ; preds = %_ZN7obj_mapI3astPS0_ED2Ev.exit
  %add.ptr.i.i.i.i = getelementptr inbounds i8, ptr %3, i64 -8
  invoke void @_ZN6memory10deallocateEPv(ptr noundef nonnull %add.ptr.i.i.i.i)
          to label %_ZN10ptr_vectorI3astED2Ev.exit unwind label %terminate.lpad.i.i1

terminate.lpad.i.i1:                              ; preds = %if.then.i.i.i
  %4 = landingpad { ptr, i32 }
          catch ptr null
  %5 = extractvalue { ptr, i32 } %4, 0
  tail call void @__clang_call_terminate(ptr %5) #14
  unreachable

_ZN10ptr_vectorI3astED2Ev.exit:                   ; preds = %_ZN7obj_mapI3astPS0_ED2Ev.exit, %if.then.i.i.i
  %m_extra_children_stack = getelementptr inbounds i8, ptr %this, i64 24
  %6 = load ptr, ptr %m_extra_children_stack, align 8
  %tobool.not.i.i.i2 = icmp eq ptr %6, null
  br i1 %tobool.not.i.i.i2, label %_ZN10ptr_vectorI3astED2Ev.exit6, label %if.then.i.i.i3

if.then.i.i.i3:                                   ; preds = %_ZN10ptr_vectorI3astED2Ev.exit
  %add.ptr.i.i.i.i4 = getelementptr inbounds i8, ptr %6, i64 -8
  invoke void @_ZN6memory10deallocateEPv(ptr noundef nonnull %add.ptr.i.i.i.i4)
          to label %_ZN10ptr_vectorI3astED2Ev.exit6 unwind label %terminate.lpad.i.i5

terminate.lpad.i.i5:                              ; preds = %if.then.i.i.i3
  %7 = landingpad { ptr, i32 }
          catch ptr null
  %8 = extractvalue { ptr, i32 } %7, 0
  tail call void @__clang_call_terminate(ptr %8) #14
  unreachable

_ZN10ptr_vectorI3astED2Ev.exit6:                  ; preds = %_ZN10ptr_vectorI3astED2Ev.exit, %if.then.i.i.i3
  %m_frame_stack = getelementptr inbounds i8, ptr %this, i64 16
  %9 = load ptr, ptr %m_frame_stack, align 8
  %tobool.not.i.i.i7 = icmp eq ptr %9, null
  br i1 %tobool.not.i.i.i7, label %_ZN7svectorIN15ast_translation5frameEjED2Ev.exit, label %if.then.i.i.i8

if.then.i.i.i8:                                   ; preds = %_ZN10ptr_vectorI3astED2Ev.exit6
  %add.ptr.i.i.i.i9 = getelementptr inbounds i8, ptr %9, i64 -8
  invoke void @_ZN6memory10deallocateEPv(ptr noundef nonnull %add.ptr.i.i.i.i9)
          to label %_ZN7svectorIN15ast_translation5frameEjED2Ev.exit unwind label %terminate.lpad.i.i10

terminate.lpad.i.i10:                             ; preds = %if.then.i.i.i8
  %10 = landingpad { ptr, i32 }
          catch ptr null
  %11 = extractvalue { ptr, i32 } %10, 0
  tail call void @__clang_call_terminate(ptr %11) #14
  unreachable

_ZN7svectorIN15ast_translation5frameEjED2Ev.exit: ; preds = %_ZN10ptr_vectorI3astED2Ev.exit6, %if.then.i.i.i8
  ret void

terminate.lpad:                                   ; preds = %entry
  %12 = landingpad { ptr, i32 }
          catch ptr null
  %13 = extractvalue { ptr, i32 } %12, 0
  tail call void @__clang_call_terminate(ptr %13) #14
  unreachable
}